target datalayout = "e-m:e-p270:32:32-p271:32:32-p272:64:64-i64:64-i128:128-f80:128-n8:16:32:64-S128"
target triple = "x86_64-pc-linux-gnu"

; Function Attrs: nounwind uwtable
define internal zeroext i1 @exec_command_dfo(ptr noundef %0, ptr noundef %1, ptr noundef %2, i1 noundef zeroext %3, i1 noundef zeroext %4) #0 {
  %6 = alloca ptr, align 8
  %7 = alloca ptr, align 8
  %8 = alloca ptr, align 8
  %9 = alloca i8, align 1
  %10 = alloca i8, align 1
  %11 = alloca i8, align 1
  %12 = alloca [100 x ptr], align 16
  %13 = alloca i32, align 4
  %14 = alloca ptr, align 8
  store ptr %0, ptr %6, align 8
  store ptr %1, ptr %7, align 8
  store ptr %2, ptr %8, align 8
  %15 = zext i1 %3 to i8
  store i8 %15, ptr %9, align 1
  %16 = zext i1 %4 to i8
  store i8 %16, ptr %10, align 1
  call void @llvm.lifetime.start.p0(i64 1, ptr %11) #10
  call void @llvm.lifetime.start.p0(i64 800, ptr %12) #10
  call void @llvm.lifetime.start.p0(i64 4, ptr %13) #10
  store i32 0, ptr %13, align 4
  %17 = load ptr, ptr %8, align 8
  %18 = icmp ne ptr %17, null
  br i1 %18, label %19, label %35

19:                                               ; preds = %5
  call void @llvm.lifetime.start.p0(i64 8, ptr %14) #10
  br label %20

20:                                               ; preds = %33, %19
  %21 = load ptr, ptr %6, align 8
  %22 = call ptr @psql_scan_slash_option(ptr noundef %21, i32 noundef 0, ptr noundef null, i1 noundef zeroext true)
  store ptr %22, ptr %14, align 8
  %23 = icmp ne ptr %22, null
  br i1 %23, label %24, label %34

24:                                               ; preds = %20
  %25 = load ptr, ptr %14, align 8
  %26 = load i32, ptr %13, align 4
  %27 = add i32 %26, 1
  store i32 %27, ptr %13, align 4
  %28 = sext i32 %26 to i64
  %29 = getelementptr inbounds [100 x ptr], ptr %12, i64 0, i64 %28
  store ptr %25, ptr %29, align 8
  %30 = load i32, ptr %13, align 4
  %31 = icmp sge i32 %30, 100
  br i1 %31, label %32, label %33

32:                                               ; preds = %24
  br label %34

33:                                               ; preds = %24
  br label %20, !llvm.loop !23

34:                                               ; preds = %32, %20
  call void @llvm.lifetime.end.p0(i64 8, ptr %14) #10
  br label %35

35:                                               ; preds = %34, %5
  %36 = load ptr, ptr %7, align 8
  %37 = getelementptr inbounds i8, ptr %36, i64 1
  %38 = load i8, ptr %37, align 1
  %39 = sext i8 %38 to i32
  %40 = icmp eq i32 %39, 102
  br i1 %40, label %41, label %53

41:                                               ; preds = %35
  %42 = load ptr, ptr %7, align 8
  %43 = getelementptr inbounds i8, ptr %42, i64 2
  %44 = load ptr, ptr %8, align 8
  %45 = getelementptr inbounds [100 x ptr], ptr %12, i64 0, i64 0
  %46 = load i32, ptr %13, align 4
  %47 = load i8, ptr %9, align 1, !range !4, !noundef !5
  %48 = trunc i8 %47 to i1
  %49 = load i8, ptr %10, align 1, !range !4, !noundef !5
  %50 = trunc i8 %49 to i1
  %51 = call zeroext i1 @describeFunctions(ptr noundef %43, ptr noundef %44, ptr noundef %45, i32 noundef %46, i1 noundef zeroext %48, i1 noundef zeroext %50)
  %52 = zext i1 %51 to i8
  store i8 %52, ptr %11, align 1
  br label %63

53:                                               ; preds = %35
  %54 = load ptr, ptr %8, align 8
  %55 = getelementptr inbounds [100 x ptr], ptr %12, i64 0, i64 0
  %56 = load i32, ptr %13, align 4
  %57 = load i8, ptr %9, align 1, !range !4, !noundef !5
  %58 = trunc i8 %57 to i1
  %59 = load i8, ptr %10, align 1, !range !4, !noundef !5
  %60 = trunc i8 %59 to i1
  %61 = call zeroext i1 @describeOperators(ptr noundef %54, ptr noundef %55, i32 noundef %56, i1 noundef zeroext %58, i1 noundef zeroext %60)
  %62 = zext i1 %61 to i8
  store i8 %62, ptr %11, align 1
  br label %63

63:                                               ; preds = %53, %41
  br label %64

64:                                               ; preds = %68, %63
  %65 = load i32, ptr %13, align 4
  %66 = add i32 %65, -1
  store i32 %66, ptr %13, align 4
  %67 = icmp sge i32 %66, 0
  br i1 %67, label %68, label %73

68:                                               ; preds = %64
  %69 = load i32, ptr %13, align 4
  %70 = sext i32 %69 to i64
  %71 = getelementptr inbounds [100 x ptr], ptr %12, i64 0, i64 %70
  %72 = load ptr, ptr %71, align 8
  call void @free(ptr noundef %72) #10
  br label %64, !llvm.loop !24

73:                                               ; preds = %64
  %74 = load i8, ptr %11, align 1, !range !4, !noundef !5
  %75 = trunc i8 %74 to i1
  call void @llvm.lifetime.end.p0(i64 4, ptr %13) #10
  call void @llvm.lifetime.end.p0(i64 800, ptr %12) #10
  call void @llvm.lifetime.end.p0(i64 1, ptr %11) #10
  ret i1 %75
}