; Function Attrs: nounwind uwtable
define internal fastcc zeroext i1 @exec_command_dfo(ptr noundef %0, ptr noundef %1, ptr noundef %2, i1 noundef zeroext %3, i1 noundef zeroext %4) unnamed_addr #0 {
  %6 = alloca [100 x ptr], align 16
  call void @llvm.lifetime.start.p0(i64 800, ptr nonnull %6) #16
  %.not = icmp eq ptr %2, null
  br i1 %.not, label %.loopexit, label %.preheader

.preheader:                                       ; preds = %5, %8
  %indvars.iv = phi i64 [ %indvars.iv.next, %8 ], [ 0, %5 ]
  %7 = tail call ptr @psql_scan_slash_option(ptr noundef %0, i32 noundef 0, ptr noundef null, i1 noundef zeroext true) #16
  %.not22 = icmp eq ptr %7, null
  br i1 %.not22, label %.loopexit.loopexit.split.loop.exit27, label %8

8:                                                ; preds = %.preheader
  %indvars.iv.next = add nuw nsw i64 %indvars.iv, 1
  %9 = getelementptr inbounds nuw [100 x ptr], ptr %6, i64 0, i64 %indvars.iv
  store ptr %7, ptr %9, align 8
  %exitcond = icmp eq i64 %indvars.iv.next, 100
  br i1 %exitcond, label %.loopexit, label %.preheader, !llvm.loop !28

.loopexit.loopexit.split.loop.exit27:             ; preds = %.preheader
  %10 = trunc nuw nsw i64 %indvars.iv to i32
  br label %.loopexit

.loopexit:                                        ; preds = %8, %.loopexit.loopexit.split.loop.exit27, %5
  %.017 = phi i32 [ 0, %5 ], [ %10, %.loopexit.loopexit.split.loop.exit27 ], [ 100, %8 ]
  %11 = getelementptr inbounds nuw i8, ptr %1, i64 1
  %12 = load i8, ptr %11, align 1
  %13 = icmp eq i8 %12, 102
  br i1 %13, label %14, label %17

14:                                               ; preds = %.loopexit
  %15 = getelementptr inbounds nuw i8, ptr %1, i64 2
  %16 = call zeroext i1 @describeFunctions(ptr noundef nonnull %15, ptr noundef %2, ptr noundef nonnull %6, i32 noundef %.017, i1 noundef zeroext %3, i1 noundef zeroext %4) #16
  br label %19

17:                                               ; preds = %.loopexit
  %18 = call zeroext i1 @describeOperators(ptr noundef %2, ptr noundef nonnull %6, i32 noundef %.017, i1 noundef zeroext %3, i1 noundef zeroext %4) #16
  br label %19

19:                                               ; preds = %17, %14
  %.0.in = phi i1 [ %16, %14 ], [ %18, %17 ]
  %20 = add i32 %.017, -1
  %21 = icmp sgt i32 %20, -1
  br i1 %21, label %.lr.ph.preheader, label %._crit_edge

.lr.ph.preheader:                                 ; preds = %19
  %22 = zext nneg i32 %20 to i64
  br label %.lr.ph

.lr.ph:                                           ; preds = %.lr.ph.preheader, %.lr.ph
  %indvars.iv24 = phi i64 [ %22, %.lr.ph.preheader ], [ %indvars.iv.next25, %.lr.ph ]
  %23 = getelementptr inbounds nuw [100 x ptr], ptr %6, i64 0, i64 %indvars.iv24
  %24 = load ptr, ptr %23, align 8
  call void @free(ptr noundef %24) #16
  %indvars.iv.next25 = add nsw i64 %indvars.iv24, -1
  %.not29 = icmp eq i64 %indvars.iv24, 0
  br i1 %.not29, label %._crit_edge, label %.lr.ph, !llvm.loop !29

._crit_edge:                                      ; preds = %.lr.ph, %19
  call void @llvm.lifetime.end.p0(i64 800, ptr nonnull %6) #16
  ret i1 %.0.in
}